; Function Attrs: nounwind uwtable
define noalias nonnull ptr @l_Array_forIn_x27Unsafe_loop___at_Lean_Elab_WF_GuessLex_reportTerminationMeasures___spec__1___lambda__1___boxed(ptr noundef %0, ptr noundef %1, ptr noundef %2, ptr noundef %3, ptr noundef %4, ptr noundef %5, ptr noundef %6) #1 {
  %8 = getelementptr i8, ptr %0, i64 8
  %.val.i = load i64, ptr %8, align 8, !tbaa !12
  tail call void @lean_inc_heartbeat() #8
  %9 = tail call noalias ptr @mi_malloc_small(i64 noundef 24) #8
  %10 = icmp eq ptr %9, null
  br i1 %10, label %11, label %l_Array_forIn_x27Unsafe_loop___at_Lean_Elab_WF_GuessLex_reportTerminationMeasures___spec__1___lambda__1.exit

11:                                               ; preds = %7
  tail call void @lean_internal_panic_out_of_memory() #9
  unreachable

l_Array_forIn_x27Unsafe_loop___at_Lean_Elab_WF_GuessLex_reportTerminationMeasures___spec__1___lambda__1.exit: ; preds = %7
  %12 = shl i64 %.val.i, 1
  %13 = or disjoint i64 %12, 1
  %14 = inttoptr i64 %13 to ptr
  %15 = getelementptr inbounds nuw i8, ptr %9, i64 4
  store i32 1, ptr %9, align 4, !tbaa !8
  store i32 131096, ptr %15, align 4
  %16 = getelementptr inbounds nuw i8, ptr %9, i64 8
  store ptr %14, ptr %16, align 8, !tbaa !4
  %17 = getelementptr inbounds nuw i8, ptr %9, i64 16
  store ptr %6, ptr %17, align 8, !tbaa !4
  %18 = ptrtoint ptr %5 to i64
  %19 = and i64 %18, 1
  %.not = icmp eq i64 %19, 0
  br i1 %.not, label %20, label %lean_dec.exit18

20:                                               ; preds = %l_Array_forIn_x27Unsafe_loop___at_Lean_Elab_WF_GuessLex_reportTerminationMeasures___spec__1___lambda__1.exit
  %21 = load i32, ptr %5, align 4, !tbaa !8
  %22 = icmp sgt i32 %21, 1
  br i1 %22, label %23, label %25, !prof !11

23:                                               ; preds = %20
  %24 = add nsw i32 %21, -1
  store i32 %24, ptr %5, align 4, !tbaa !8
  br label %lean_dec.exit18

25:                                               ; preds = %20
  %.not.i = icmp eq i32 %21, 0
  br i1 %.not.i, label %lean_dec.exit18, label %26

26:                                               ; preds = %25
  tail call void @lean_dec_ref_cold(ptr noundef nonnull %5) #8
  br label %lean_dec.exit18

lean_dec.exit18:                                  ; preds = %26, %25, %23, %l_Array_forIn_x27Unsafe_loop___at_Lean_Elab_WF_GuessLex_reportTerminationMeasures___spec__1___lambda__1.exit
  %27 = ptrtoint ptr %4 to i64
  %28 = and i64 %27, 1
  %.not29 = icmp eq i64 %28, 0
  br i1 %.not29, label %29, label %lean_dec.exit17

29:                                               ; preds = %lean_dec.exit18
  %30 = load i32, ptr %4, align 4, !tbaa !8
  %31 = icmp sgt i32 %30, 1
  br i1 %31, label %32, label %34, !prof !11

32:                                               ; preds = %29
  %33 = add nsw i32 %30, -1
  store i32 %33, ptr %4, align 4, !tbaa !8
  br label %lean_dec.exit17

34:                                               ; preds = %29
  %.not.i19 = icmp eq i32 %30, 0
  br i1 %.not.i19, label %lean_dec.exit17, label %35

35:                                               ; preds = %34
  tail call void @lean_dec_ref_cold(ptr noundef nonnull %4) #8
  br label %lean_dec.exit17

lean_dec.exit17:                                  ; preds = %35, %34, %32, %lean_dec.exit18
  %36 = ptrtoint ptr %3 to i64
  %37 = and i64 %36, 1
  %.not30 = icmp eq i64 %37, 0
  br i1 %.not30, label %38, label %lean_dec.exit16

38:                                               ; preds = %lean_dec.exit17
  %39 = load i32, ptr %3, align 4, !tbaa !8
  %40 = icmp sgt i32 %39, 1
  br i1 %40, label %41, label %43, !prof !11

41:                                               ; preds = %38
  %42 = add nsw i32 %39, -1
  store i32 %42, ptr %3, align 4, !tbaa !8
  br label %lean_dec.exit16

43:                                               ; preds = %38
  %.not.i21 = icmp eq i32 %39, 0
  br i1 %.not.i21, label %lean_dec.exit16, label %44

44:                                               ; preds = %43
  tail call void @lean_dec_ref_cold(ptr noundef nonnull %3) #8
  br label %lean_dec.exit16

lean_dec.exit16:                                  ; preds = %44, %43, %41, %lean_dec.exit17
  %45 = ptrtoint ptr %2 to i64
  %46 = and i64 %45, 1
  %.not31 = icmp eq i64 %46, 0
  br i1 %.not31, label %47, label %lean_dec.exit15

47:                                               ; preds = %lean_dec.exit16
  %48 = load i32, ptr %2, align 4, !tbaa !8
  %49 = icmp sgt i32 %48, 1
  br i1 %49, label %50, label %52, !prof !11

50:                                               ; preds = %47
  %51 = add nsw i32 %48, -1
  store i32 %51, ptr %2, align 4, !tbaa !8
  br label %lean_dec.exit15

52:                                               ; preds = %47
  %.not.i23 = icmp eq i32 %48, 0
  br i1 %.not.i23, label %lean_dec.exit15, label %53

53:                                               ; preds = %52
  tail call void @lean_dec_ref_cold(ptr noundef nonnull %2) #8
  br label %lean_dec.exit15

lean_dec.exit15:                                  ; preds = %53, %52, %50, %lean_dec.exit16
  %54 = ptrtoint ptr %1 to i64
  %55 = and i64 %54, 1
  %.not32 = icmp eq i64 %55, 0
  br i1 %.not32, label %56, label %lean_dec.exit14

56:                                               ; preds = %lean_dec.exit15
  %57 = load i32, ptr %1, align 4, !tbaa !8
  %58 = icmp sgt i32 %57, 1
  br i1 %58, label %59, label %61, !prof !11

59:                                               ; preds = %56
  %60 = add nsw i32 %57, -1
  store i32 %60, ptr %1, align 4, !tbaa !8
  br label %lean_dec.exit14

61:                                               ; preds = %56
  %.not.i25 = icmp eq i32 %57, 0
  br i1 %.not.i25, label %lean_dec.exit14, label %62

62:                                               ; preds = %61
  tail call void @lean_dec_ref_cold(ptr noundef nonnull %1) #8
  br label %lean_dec.exit14

lean_dec.exit14:                                  ; preds = %62, %61, %59, %lean_dec.exit15
  %63 = ptrtoint ptr %0 to i64
  %64 = and i64 %63, 1
  %.not33 = icmp eq i64 %64, 0
  br i1 %.not33, label %65, label %lean_dec.exit

65:                                               ; preds = %lean_dec.exit14
  %66 = load i32, ptr %0, align 4, !tbaa !8
  %67 = icmp sgt i32 %66, 1
  br i1 %67, label %68, label %70, !prof !11

68:                                               ; preds = %65
  %69 = add nsw i32 %66, -1
  store i32 %69, ptr %0, align 4, !tbaa !8
  br label %lean_dec.exit

70:                                               ; preds = %65
  %.not.i27 = icmp eq i32 %66, 0
  br i1 %.not.i27, label %lean_dec.exit, label %71

71:                                               ; preds = %70
  tail call void @lean_dec_ref_cold(ptr noundef nonnull %0) #8
  br label %lean_dec.exit

lean_dec.exit:                                    ; preds = %71, %70, %68, %lean_dec.exit14
  ret ptr %9
}